target datalayout = "e-m:e-p270:32:32-p271:32:32-p272:64:64-i64:64-i128:128-f80:128-n8:16:32:64-S128"
target triple = "x86_64-pc-linux-gnu"

%struct.lua_Debug = type { i32, ptr, ptr, ptr, ptr, i64, i32, i32, i32, i8, i8, i8, i8, i8, i32, i32, [60 x i8], ptr }

@.str.8 = private unnamed_addr constant [7 x i8] c"thread\00", align 1
@statname = internal constant [4 x ptr] [ptr @.str.2, ptr @.str.11, ptr @.str.12, ptr @.str.13], align 16
@.str.14 = private unnamed_addr constant [28 x i8] c"cannot close a %s coroutine\00", align 1

; Function Attrs: nounwind uwtable
define internal i32 @auxstatus(ptr noundef %0, ptr noundef %1) #0 {
  %3 = alloca i32, align 4
  %4 = alloca ptr, align 8
  %5 = alloca ptr, align 8
  %6 = alloca %struct.lua_Debug, align 8
  %7 = alloca i32, align 4
  store ptr %0, ptr %4, align 8, !tbaa !4
  store ptr %1, ptr %5, align 8, !tbaa !4
  %8 = load ptr, ptr %4, align 8, !tbaa !4
  %9 = load ptr, ptr %5, align 8, !tbaa !4
  %10 = icmp eq ptr %8, %9
  br i1 %10, label %11, label %12

11:                                               ; preds = %2
  store i32 0, ptr %3, align 4
  br label %29

12:                                               ; preds = %2
  %13 = load ptr, ptr %5, align 8, !tbaa !4
  %14 = call i32 @lua_status(ptr noundef %13)
  switch i32 %14, label %28 [
    i32 1, label %15
    i32 0, label %16
  ]

15:                                               ; preds = %12
  store i32 2, ptr %3, align 4
  br label %29

16:                                               ; preds = %12
  call void @llvm.lifetime.start.p0(i64 144, ptr %6) #4
  %17 = load ptr, ptr %5, align 8, !tbaa !4
  %18 = call i32 @lua_getstack(ptr noundef %17, i32 noundef 0, ptr noundef %6)
  %19 = icmp ne i32 %18, 0
  br i1 %19, label %20, label %21

20:                                               ; preds = %16
  store i32 3, ptr %3, align 4
  store i32 1, ptr %7, align 4
  br label %27

21:                                               ; preds = %16
  %22 = load ptr, ptr %5, align 8, !tbaa !4
  %23 = call i32 @lua_gettop(ptr noundef %22)
  %24 = icmp eq i32 %23, 0
  br i1 %24, label %25, label %26

25:                                               ; preds = %21
  store i32 1, ptr %3, align 4
  store i32 1, ptr %7, align 4
  br label %27

26:                                               ; preds = %21
  store i32 2, ptr %3, align 4
  store i32 1, ptr %7, align 4
  br label %27

27:                                               ; preds = %26, %25, %20
  call void @llvm.lifetime.end.p0(i64 144, ptr %6) #4
  br label %29

28:                                               ; preds = %12
  store i32 1, ptr %3, align 4
  br label %29

29:                                               ; preds = %28, %27, %15, %11
  %30 = load i32, ptr %3, align 4
  ret i32 %30
}

; Function Attrs: nounwind uwtable
define internal ptr @getco(ptr noundef %0) #0 {
  %2 = alloca ptr, align 8
  %3 = alloca ptr, align 8
  store ptr %0, ptr %2, align 8, !tbaa !4
  call void @llvm.lifetime.start.p0(i64 8, ptr %3) #4
  %4 = load ptr, ptr %2, align 8, !tbaa !4
  %5 = call ptr @lua_tothread(ptr noundef %4, i32 noundef 1)
  store ptr %5, ptr %3, align 8, !tbaa !4
  %6 = load ptr, ptr %3, align 8, !tbaa !4
  %7 = icmp ne ptr %6, null
  %8 = zext i1 %7 to i32
  %9 = sext i32 %8 to i64
  %10 = call i64 @llvm.expect.i64(i64 %9, i64 1)
  %11 = icmp ne i64 %10, 0
  br i1 %11, label %15, label %12

12:                                               ; preds = %1
  %13 = load ptr, ptr %2, align 8, !tbaa !4
  %14 = call i32 @luaL_typeerror(ptr noundef %13, i32 noundef 1, ptr noundef @.str.8)
  br label %15

15:                                               ; preds = %12, %1
  %16 = load ptr, ptr %3, align 8, !tbaa !4
  call void @llvm.lifetime.end.p0(i64 8, ptr %3) #4
  ret ptr %16
}

; Function Attrs: nounwind uwtable
define internal i32 @luaB_close(ptr noundef %0) #0 {
  %2 = alloca i32, align 4
  %3 = alloca ptr, align 8
  %4 = alloca ptr, align 8
  %5 = alloca i32, align 4
  %6 = alloca i32, align 4
  store ptr %0, ptr %3, align 8, !tbaa !4
  call void @llvm.lifetime.start.p0(i64 8, ptr %4) #4
  %7 = load ptr, ptr %3, align 8, !tbaa !4
  %8 = call ptr @getco(ptr noundef %7)
  store ptr %8, ptr %4, align 8, !tbaa !4
  call void @llvm.lifetime.start.p0(i64 4, ptr %5) #4
  %9 = load ptr, ptr %3, align 8, !tbaa !4
  %10 = load ptr, ptr %4, align 8, !tbaa !4
  %11 = call i32 @auxstatus(ptr noundef %9, ptr noundef %10)
  store i32 %11, ptr %5, align 4, !tbaa !9
  %12 = load i32, ptr %5, align 4, !tbaa !9
  switch i32 %12, label %25 [
    i32 1, label %13
    i32 2, label %13
  ]

13:                                               ; preds = %1, %1
  %14 = load ptr, ptr %4, align 8, !tbaa !4
  %15 = load ptr, ptr %3, align 8, !tbaa !4
  %16 = call i32 @lua_closethread(ptr noundef %14, ptr noundef %15)
  store i32 %16, ptr %5, align 4, !tbaa !9
  %17 = load i32, ptr %5, align 4, !tbaa !9
  %18 = icmp eq i32 %17, 0
  br i1 %18, label %19, label %21

19:                                               ; preds = %13
  %20 = load ptr, ptr %3, align 8, !tbaa !4
  call void @lua_pushboolean(ptr noundef %20, i32 noundef 1)
  store i32 1, ptr %2, align 4
  store i32 1, ptr %6, align 4
  br label %32

21:                                               ; preds = %13
  %22 = load ptr, ptr %3, align 8, !tbaa !4
  call void @lua_pushboolean(ptr noundef %22, i32 noundef 0)
  %23 = load ptr, ptr %4, align 8, !tbaa !4
  %24 = load ptr, ptr %3, align 8, !tbaa !4
  call void @lua_xmove(ptr noundef %23, ptr noundef %24, i32 noundef 1)
  store i32 2, ptr %2, align 4
  store i32 1, ptr %6, align 4
  br label %32

25:                                               ; preds = %1
  %26 = load ptr, ptr %3, align 8, !tbaa !4
  %27 = load i32, ptr %5, align 4, !tbaa !9
  %28 = sext i32 %27 to i64
  %29 = getelementptr inbounds [4 x ptr], ptr @statname, i64 0, i64 %28
  %30 = load ptr, ptr %29, align 8, !tbaa !11
  %31 = call i32 (ptr, ptr, ...) @luaL_error(ptr noundef %26, ptr noundef @.str.14, ptr noundef %30)
  store i32 %31, ptr %2, align 4
  store i32 1, ptr %6, align 4
  br label %32

32:                                               ; preds = %25, %21, %19
  call void @llvm.lifetime.end.p0(i64 4, ptr %5) #4
  call void @llvm.lifetime.end.p0(i64 8, ptr %4) #4
  %33 = load i32, ptr %2, align 4
  ret i32 %33
}