; Function Attrs: nounwind uwtable
define internal i32 @luaB_close(ptr noundef %0) #0 {
  %2 = alloca %struct.lua_Debug, align 8
  %3 = tail call ptr @lua_tothread(ptr noundef %0, i32 noundef 1) #3
  %.not.i = icmp eq ptr %3, null
  br i1 %.not.i, label %4, label %getco.exit, !prof !4

4:                                                ; preds = %1
  %5 = tail call i32 @luaL_typeerror(ptr noundef %0, i32 noundef 1, ptr noundef nonnull @.str.8) #3
  br label %getco.exit

getco.exit:                                       ; preds = %1, %4
  %6 = icmp eq ptr %0, %3
  br i1 %6, label %auxstatus.exit.thread17, label %7

7:                                                ; preds = %getco.exit
  %8 = tail call i32 @lua_status(ptr noundef %3) #3
  %cond = icmp eq i32 %8, 0
  br i1 %cond, label %9, label %auxstatus.exit.thread

9:                                                ; preds = %7
  call void @llvm.lifetime.start.p0(i64 144, ptr nonnull %2) #3
  %10 = call i32 @lua_getstack(ptr noundef %3, i32 noundef 0, ptr noundef nonnull %2) #3
  %.not.i13 = icmp eq i32 %10, 0
  br i1 %.not.i13, label %auxstatus.exit, label %auxstatus.exit.thread22

auxstatus.exit.thread22:                          ; preds = %9
  call void @llvm.lifetime.end.p0(i64 144, ptr nonnull %2) #3
  br label %auxstatus.exit.thread17

auxstatus.exit:                                   ; preds = %9
  %11 = call i32 @lua_gettop(ptr noundef %3) #3
  call void @llvm.lifetime.end.p0(i64 144, ptr nonnull %2) #3
  br label %auxstatus.exit.thread

auxstatus.exit.thread:                            ; preds = %auxstatus.exit, %7
  %12 = call i32 @lua_closethread(ptr noundef %3, ptr noundef %0) #3
  %13 = icmp eq i32 %12, 0
  br i1 %13, label %14, label %15

14:                                               ; preds = %auxstatus.exit.thread
  call void @lua_pushboolean(ptr noundef %0, i32 noundef 1) #3
  br label %19

15:                                               ; preds = %auxstatus.exit.thread
  call void @lua_pushboolean(ptr noundef %0, i32 noundef 0) #3
  call void @lua_xmove(ptr noundef %3, ptr noundef %0, i32 noundef 1) #3
  br label %19

auxstatus.exit.thread17:                          ; preds = %getco.exit, %auxstatus.exit.thread22
  %.0.i21 = phi i64 [ 3, %auxstatus.exit.thread22 ], [ 0, %getco.exit ]
  %16 = getelementptr inbounds nuw [4 x ptr], ptr @statname, i64 0, i64 %.0.i21
  %17 = load ptr, ptr %16, align 8, !tbaa !5
  %18 = call i32 (ptr, ptr, ...) @luaL_error(ptr noundef %0, ptr noundef nonnull @.str.14, ptr noundef %17) #3
  br label %19

19:                                               ; preds = %auxstatus.exit.thread17, %15, %14
  %.0 = phi i32 [ %18, %auxstatus.exit.thread17 ], [ 1, %14 ], [ 2, %15 ]
  ret i32 %.0
}